target datalayout = "e-m:e-p270:32:32-p271:32:32-p272:64:64-i64:64-i128:128-f80:128-n8:16:32:64-S128"
target triple = "x86_64-pc-linux-gnu"

%class.PathString = type { ptr }

@_ZN9Arguments16_jvm_flags_arrayE = hidden global ptr null, align 8
@_ZN9Arguments14_num_jvm_flagsE = hidden global i32 0, align 4
@_ZN9Arguments15_jvm_args_arrayE = hidden global ptr null, align 8
@_ZN9Arguments13_num_jvm_argsE = hidden global i32 0, align 4
@_ZN9Arguments13_java_commandE = hidden global ptr null, align 8
@_ZN9Arguments18_sun_java_launcherE = hidden global ptr @_ZL22_default_java_launcher, align 8
@_ZN9Arguments16_java_class_pathE = hidden global ptr null, align 8
@.str.64 = private unnamed_addr constant [4 x i8] c"%s \00", align 1
@.str.65 = private unnamed_addr constant [14 x i8] c"VM Arguments:\00", align 1
@.str.66 = private unnamed_addr constant [12 x i8] c"jvm_flags: \00", align 1
@.str.67 = private unnamed_addr constant [11 x i8] c"jvm_args: \00", align 1
@.str.68 = private unnamed_addr constant [17 x i8] c"java_command: %s\00", align 1
@.str.69 = private unnamed_addr constant [10 x i8] c"<unknown>\00", align 1
@.str.70 = private unnamed_addr constant [28 x i8] c"java_class_path (initial): \00", align 1
@.str.71 = private unnamed_addr constant [10 x i8] c"<not set>\00", align 1
@.str.72 = private unnamed_addr constant [18 x i8] c"Launcher Type: %s\00", align 1

; Function Attrs: mustprogress nounwind uwtable
define linkonce_odr hidden void @_ZN12outputStream9print_rawEPKc(ptr noundef nonnull align 8 dereferenceable(56) %0, ptr noundef %1) #1 comdat align 2 {
  %3 = alloca ptr, align 8
  %4 = alloca ptr, align 8
  store ptr %0, ptr %3, align 8
  store ptr %1, ptr %4, align 8
  %5 = load ptr, ptr %3, align 8
  %6 = load ptr, ptr %4, align 8
  %7 = load ptr, ptr %4, align 8
  %8 = call i64 @strlen(ptr noundef %7) #12
  call void @_ZN12outputStream9print_rawEPKcm(ptr noundef nonnull align 8 dereferenceable(56) %5, ptr noundef %6, i64 noundef %8)
  ret void
}

; Function Attrs: mustprogress nounwind uwtable
define linkonce_odr hidden noundef ptr @_ZNK10PathString5valueEv(ptr noundef nonnull align 8 dereferenceable(8) %0) #1 comdat align 2 {
  %2 = alloca ptr, align 8
  store ptr %0, ptr %2, align 8
  %3 = load ptr, ptr %2, align 8
  %4 = getelementptr inbounds %class.PathString, ptr %3, i32 0, i32 0
  %5 = load ptr, ptr %4, align 8
  ret ptr %5
}

; Function Attrs: mustprogress nounwind uwtable
define linkonce_odr hidden void @_ZN12outputStream12print_raw_crEPKcm(ptr noundef nonnull align 8 dereferenceable(56) %0, ptr noundef %1, i64 noundef %2) #1 comdat align 2 {
  %4 = alloca ptr, align 8
  %5 = alloca ptr, align 8
  %6 = alloca i64, align 8
  store ptr %0, ptr %4, align 8
  store ptr %1, ptr %5, align 8
  store i64 %2, ptr %6, align 8
  %7 = load ptr, ptr %4, align 8
  %8 = load ptr, ptr %5, align 8
  %9 = load i64, ptr %6, align 8
  call void @_ZN12outputStream9print_rawEPKcm(ptr noundef nonnull align 8 dereferenceable(56) %7, ptr noundef %8, i64 noundef %9)
  call void @_ZN12outputStream2crEv(ptr noundef nonnull align 8 dereferenceable(56) %7)
  ret void
}

; Function Attrs: mustprogress nounwind uwtable
define linkonce_odr hidden void @_ZN12outputStream12print_raw_crEPKc(ptr noundef nonnull align 8 dereferenceable(56) %0, ptr noundef %1) #1 comdat align 2 {
  %3 = alloca ptr, align 8
  %4 = alloca ptr, align 8
  store ptr %0, ptr %3, align 8
  store ptr %1, ptr %4, align 8
  %5 = load ptr, ptr %3, align 8
  %6 = load ptr, ptr %4, align 8
  call void @_ZN12outputStream9print_rawEPKc(ptr noundef nonnull align 8 dereferenceable(56) %5, ptr noundef %6)
  call void @_ZN12outputStream2crEv(ptr noundef nonnull align 8 dereferenceable(56) %5)
  ret void
}

; Function Attrs: mustprogress nounwind uwtable
define linkonce_odr hidden noundef ptr @_ZNK14SystemProperty5valueEv(ptr noundef nonnull align 8 dereferenceable(26) %0) #1 comdat align 2 {
  %2 = alloca ptr, align 8
  store ptr %0, ptr %2, align 8
  %3 = load ptr, ptr %2, align 8
  %4 = call noundef ptr @_ZNK10PathString5valueEv(ptr noundef nonnull align 8 dereferenceable(8) %3)
  ret ptr %4
}

; Function Attrs: mustprogress nounwind uwtable
define linkonce_odr hidden noundef ptr @_ZN9Arguments12java_commandEv() #1 comdat align 2 {
  %1 = load ptr, ptr @_ZN9Arguments13_java_commandE, align 8
  ret ptr %1
}

; Function Attrs: mustprogress nounwind uwtable
define hidden void @_ZN9Arguments17print_jvm_args_onEP12outputStream(ptr noundef %0) #1 align 2 {
  %2 = alloca ptr, align 8
  %3 = alloca i32, align 4
  store ptr %0, ptr %2, align 8
  %4 = load i32, ptr @_ZN9Arguments13_num_jvm_argsE, align 4
  %5 = icmp sgt i32 %4, 0
  br i1 %5, label %6, label %22

6:                                                ; preds = %1
  store i32 0, ptr %3, align 4
  br label %7

7:                                                ; preds = %18, %6
  %8 = load i32, ptr %3, align 4
  %9 = load i32, ptr @_ZN9Arguments13_num_jvm_argsE, align 4
  %10 = icmp slt i32 %8, %9
  br i1 %10, label %11, label %21

11:                                               ; preds = %7
  %12 = load ptr, ptr %2, align 8
  %13 = load ptr, ptr @_ZN9Arguments15_jvm_args_arrayE, align 8
  %14 = load i32, ptr %3, align 4
  %15 = sext i32 %14 to i64
  %16 = getelementptr inbounds ptr, ptr %13, i64 %15
  %17 = load ptr, ptr %16, align 8
  call void (ptr, ptr, ...) @_ZN12outputStream5printEPKcz(ptr noundef nonnull align 8 dereferenceable(56) %12, ptr noundef @.str.64, ptr noundef %17)
  br label %18

18:                                               ; preds = %11
  %19 = load i32, ptr %3, align 4
  %20 = add nsw i32 %19, 1
  store i32 %20, ptr %3, align 4
  br label %7, !llvm.loop !15

21:                                               ; preds = %7
  br label %22

22:                                               ; preds = %21, %1
  ret void
}

; Function Attrs: mustprogress nounwind uwtable
define linkonce_odr hidden noundef i32 @_ZN9Arguments12num_jvm_argsEv() #1 comdat align 2 {
  %1 = load i32, ptr @_ZN9Arguments13_num_jvm_argsE, align 4
  ret i32 %1
}

; Function Attrs: mustprogress nounwind uwtable
define hidden void @_ZN9Arguments18print_jvm_flags_onEP12outputStream(ptr noundef %0) #1 align 2 {
  %2 = alloca ptr, align 8
  %3 = alloca i32, align 4
  store ptr %0, ptr %2, align 8
  %4 = load i32, ptr @_ZN9Arguments14_num_jvm_flagsE, align 4
  %5 = icmp sgt i32 %4, 0
  br i1 %5, label %6, label %22

6:                                                ; preds = %1
  store i32 0, ptr %3, align 4
  br label %7

7:                                                ; preds = %18, %6
  %8 = load i32, ptr %3, align 4
  %9 = load i32, ptr @_ZN9Arguments14_num_jvm_flagsE, align 4
  %10 = icmp slt i32 %8, %9
  br i1 %10, label %11, label %21

11:                                               ; preds = %7
  %12 = load ptr, ptr %2, align 8
  %13 = load ptr, ptr @_ZN9Arguments16_jvm_flags_arrayE, align 8
  %14 = load i32, ptr %3, align 4
  %15 = sext i32 %14 to i64
  %16 = getelementptr inbounds ptr, ptr %13, i64 %15
  %17 = load ptr, ptr %16, align 8
  call void (ptr, ptr, ...) @_ZN12outputStream5printEPKcz(ptr noundef nonnull align 8 dereferenceable(56) %12, ptr noundef @.str.64, ptr noundef %17)
  br label %18

18:                                               ; preds = %11
  %19 = load i32, ptr %3, align 4
  %20 = add nsw i32 %19, 1
  store i32 %20, ptr %3, align 4
  br label %7, !llvm.loop !14

21:                                               ; preds = %7
  br label %22

22:                                               ; preds = %21, %1
  ret void
}

; Function Attrs: mustprogress nounwind uwtable
define linkonce_odr hidden noundef i32 @_ZN9Arguments13num_jvm_flagsEv() #1 comdat align 2 {
  %1 = load i32, ptr @_ZN9Arguments14_num_jvm_flagsE, align 4
  ret i32 %1
}

; Function Attrs: mustprogress nounwind uwtable
define hidden void @_ZN9Arguments8print_onEP12outputStream(ptr noundef %0) #1 align 2 {
  %2 = alloca ptr, align 8
  %3 = alloca ptr, align 8
  %4 = alloca i64, align 8
  store ptr %0, ptr %2, align 8
  %5 = load ptr, ptr %2, align 8
  call void (ptr, ptr, ...) @_ZN12outputStream8print_crEPKcz(ptr noundef nonnull align 8 dereferenceable(56) %5, ptr noundef @.str.65)
  %6 = call noundef i32 @_ZN9Arguments13num_jvm_flagsEv()
  %7 = icmp sgt i32 %6, 0
  br i1 %7, label %8, label %12

8:                                                ; preds = %1
  %9 = load ptr, ptr %2, align 8
  call void (ptr, ptr, ...) @_ZN12outputStream5printEPKcz(ptr noundef nonnull align 8 dereferenceable(56) %9, ptr noundef @.str.66)
  %10 = load ptr, ptr %2, align 8
  call void @_ZN9Arguments18print_jvm_flags_onEP12outputStream(ptr noundef %10)
  %11 = load ptr, ptr %2, align 8
  call void @_ZN12outputStream2crEv(ptr noundef nonnull align 8 dereferenceable(56) %11)
  br label %12

12:                                               ; preds = %8, %1
  %13 = call noundef i32 @_ZN9Arguments12num_jvm_argsEv()
  %14 = icmp sgt i32 %13, 0
  br i1 %14, label %15, label %19

15:                                               ; preds = %12
  %16 = load ptr, ptr %2, align 8
  call void (ptr, ptr, ...) @_ZN12outputStream5printEPKcz(ptr noundef nonnull align 8 dereferenceable(56) %16, ptr noundef @.str.67)
  %17 = load ptr, ptr %2, align 8
  call void @_ZN9Arguments17print_jvm_args_onEP12outputStream(ptr noundef %17)
  %18 = load ptr, ptr %2, align 8
  call void @_ZN12outputStream2crEv(ptr noundef nonnull align 8 dereferenceable(56) %18)
  br label %19

19:                                               ; preds = %15, %12
  %20 = load ptr, ptr %2, align 8
  %21 = call noundef ptr @_ZN9Arguments12java_commandEv()
  %22 = icmp ne ptr %21, null
  br i1 %22, label %23, label %25

23:                                               ; preds = %19
  %24 = call noundef ptr @_ZN9Arguments12java_commandEv()
  br label %26

25:                                               ; preds = %19
  br label %26

26:                                               ; preds = %25, %23
  %27 = phi ptr [ %24, %23 ], [ @.str.69, %25 ]
  call void (ptr, ptr, ...) @_ZN12outputStream8print_crEPKcz(ptr noundef nonnull align 8 dereferenceable(56) %20, ptr noundef @.str.68, ptr noundef %27)
  %28 = load ptr, ptr @_ZN9Arguments16_java_class_pathE, align 8
  %29 = icmp ne ptr %28, null
  br i1 %29, label %30, label %45

30:                                               ; preds = %26
  %31 = load ptr, ptr @_ZN9Arguments16_java_class_pathE, align 8
  %32 = call noundef ptr @_ZNK14SystemProperty5valueEv(ptr noundef nonnull align 8 dereferenceable(26) %31)
  store ptr %32, ptr %3, align 8
  %33 = load ptr, ptr %3, align 8
  %34 = call i64 @strlen(ptr noundef %33) #12
  store i64 %34, ptr %4, align 8
  %35 = load ptr, ptr %2, align 8
  call void (ptr, ptr, ...) @_ZN12outputStream5printEPKcz(ptr noundef nonnull align 8 dereferenceable(56) %35, ptr noundef @.str.70)
  %36 = load i64, ptr %4, align 8
  %37 = icmp eq i64 %36, 0
  br i1 %37, label %38, label %40

38:                                               ; preds = %30
  %39 = load ptr, ptr %2, align 8
  call void @_ZN12outputStream12print_raw_crEPKc(ptr noundef nonnull align 8 dereferenceable(56) %39, ptr noundef @.str.71)
  br label %44

40:                                               ; preds = %30
  %41 = load ptr, ptr %2, align 8
  %42 = load ptr, ptr %3, align 8
  %43 = load i64, ptr %4, align 8
  call void @_ZN12outputStream12print_raw_crEPKcm(ptr noundef nonnull align 8 dereferenceable(56) %41, ptr noundef %42, i64 noundef %43)
  br label %44

44:                                               ; preds = %40, %38
  br label %45

45:                                               ; preds = %44, %26
  %46 = load ptr, ptr %2, align 8
  %47 = load ptr, ptr @_ZN9Arguments18_sun_java_launcherE, align 8
  call void (ptr, ptr, ...) @_ZN12outputStream8print_crEPKcz(ptr noundef nonnull align 8 dereferenceable(56) %46, ptr noundef @.str.72, ptr noundef %47)
  ret void
}