; Function Attrs: mustprogress nounwind uwtable
define hidden void @_ZN9Arguments8print_onEP12outputStream(ptr noundef nonnull %0) local_unnamed_addr #0 align 2 {
  tail call void (ptr, ptr, ...) @_ZN12outputStream8print_crEPKcz(ptr noundef nonnull align 8 dereferenceable(56) %0, ptr noundef nonnull @.str.65) #31
  %2 = load i32, ptr @_ZN9Arguments14_num_jvm_flagsE, align 4
  %3 = icmp sgt i32 %2, 0
  br i1 %3, label %4, label %13

4:                                                ; preds = %1
  tail call void (ptr, ptr, ...) @_ZN12outputStream5printEPKcz(ptr noundef nonnull align 8 dereferenceable(56) %0, ptr noundef nonnull @.str.66) #31
  %5 = load i32, ptr @_ZN9Arguments14_num_jvm_flagsE, align 4
  %6 = icmp sgt i32 %5, 0
  br i1 %6, label %.lr.ph.i, label %_ZN9Arguments18print_jvm_flags_onEP12outputStream.exit

.lr.ph.i:                                         ; preds = %4, %.lr.ph.i
  %indvars.iv.i = phi i64 [ %indvars.iv.next.i, %.lr.ph.i ], [ 0, %4 ]
  %7 = load ptr, ptr @_ZN9Arguments16_jvm_flags_arrayE, align 8
  %8 = getelementptr inbounds ptr, ptr %7, i64 %indvars.iv.i
  %9 = load ptr, ptr %8, align 8
  tail call void (ptr, ptr, ...) @_ZN12outputStream5printEPKcz(ptr noundef nonnull align 8 dereferenceable(56) %0, ptr noundef nonnull @.str.64, ptr noundef %9) #31
  %indvars.iv.next.i = add nuw nsw i64 %indvars.iv.i, 1
  %10 = load i32, ptr @_ZN9Arguments14_num_jvm_flagsE, align 4
  %11 = sext i32 %10 to i64
  %12 = icmp slt i64 %indvars.iv.next.i, %11
  br i1 %12, label %.lr.ph.i, label %_ZN9Arguments18print_jvm_flags_onEP12outputStream.exit, !llvm.loop !13

_ZN9Arguments18print_jvm_flags_onEP12outputStream.exit: ; preds = %.lr.ph.i, %4
  tail call void @_ZN12outputStream2crEv(ptr noundef nonnull align 8 dereferenceable(56) %0) #31
  br label %13

13:                                               ; preds = %_ZN9Arguments18print_jvm_flags_onEP12outputStream.exit, %1
  %14 = load i32, ptr @_ZN9Arguments13_num_jvm_argsE, align 4
  %15 = icmp sgt i32 %14, 0
  br i1 %15, label %16, label %25

16:                                               ; preds = %13
  tail call void (ptr, ptr, ...) @_ZN12outputStream5printEPKcz(ptr noundef nonnull align 8 dereferenceable(56) %0, ptr noundef nonnull @.str.67) #31
  %17 = load i32, ptr @_ZN9Arguments13_num_jvm_argsE, align 4
  %18 = icmp sgt i32 %17, 0
  br i1 %18, label %.lr.ph.i17, label %_ZN9Arguments17print_jvm_args_onEP12outputStream.exit

.lr.ph.i17:                                       ; preds = %16, %.lr.ph.i17
  %indvars.iv.i18 = phi i64 [ %indvars.iv.next.i19, %.lr.ph.i17 ], [ 0, %16 ]
  %19 = load ptr, ptr @_ZN9Arguments15_jvm_args_arrayE, align 8
  %20 = getelementptr inbounds ptr, ptr %19, i64 %indvars.iv.i18
  %21 = load ptr, ptr %20, align 8
  tail call void (ptr, ptr, ...) @_ZN12outputStream5printEPKcz(ptr noundef nonnull align 8 dereferenceable(56) %0, ptr noundef nonnull @.str.64, ptr noundef %21) #31
  %indvars.iv.next.i19 = add nuw nsw i64 %indvars.iv.i18, 1
  %22 = load i32, ptr @_ZN9Arguments13_num_jvm_argsE, align 4
  %23 = sext i32 %22 to i64
  %24 = icmp slt i64 %indvars.iv.next.i19, %23
  br i1 %24, label %.lr.ph.i17, label %_ZN9Arguments17print_jvm_args_onEP12outputStream.exit, !llvm.loop !14

_ZN9Arguments17print_jvm_args_onEP12outputStream.exit: ; preds = %.lr.ph.i17, %16
  tail call void @_ZN12outputStream2crEv(ptr noundef nonnull align 8 dereferenceable(56) %0) #31
  br label %25

25:                                               ; preds = %_ZN9Arguments17print_jvm_args_onEP12outputStream.exit, %13
  %26 = load ptr, ptr @_ZN9Arguments13_java_commandE, align 8
  %.not = icmp eq ptr %26, null
  %spec.select = select i1 %.not, ptr @.str.69, ptr %26
  tail call void (ptr, ptr, ...) @_ZN12outputStream8print_crEPKcz(ptr noundef nonnull align 8 dereferenceable(56) %0, ptr noundef nonnull @.str.68, ptr noundef nonnull %spec.select) #31
  %27 = load ptr, ptr @_ZN9Arguments16_java_class_pathE, align 8
  %.not16 = icmp eq ptr %27, null
  br i1 %.not16, label %34, label %28

28:                                               ; preds = %25
  %29 = load ptr, ptr %27, align 8
  %30 = tail call i64 @strlen(ptr noundef nonnull dereferenceable(1) %29) #30
  tail call void (ptr, ptr, ...) @_ZN12outputStream5printEPKcz(ptr noundef nonnull align 8 dereferenceable(56) %0, ptr noundef nonnull @.str.70) #31
  %31 = icmp eq i64 %30, 0
  br i1 %31, label %32, label %33

32:                                               ; preds = %28
  tail call void @_ZN12outputStream9print_rawEPKcm(ptr noundef nonnull align 8 dereferenceable(56) %0, ptr noundef nonnull @.str.71, i64 noundef 9) #31
  br label %.sink.split

33:                                               ; preds = %28
  tail call void @_ZN12outputStream9print_rawEPKcm(ptr noundef nonnull align 8 dereferenceable(56) %0, ptr noundef %29, i64 noundef %30) #31
  br label %.sink.split

.sink.split:                                      ; preds = %33, %32
  tail call void @_ZN12outputStream2crEv(ptr noundef nonnull align 8 dereferenceable(56) %0) #31
  br label %34

34:                                               ; preds = %.sink.split, %25
  %35 = load ptr, ptr @_ZN9Arguments18_sun_java_launcherE, align 8
  tail call void (ptr, ptr, ...) @_ZN12outputStream8print_crEPKcz(ptr noundef nonnull align 8 dereferenceable(56) %0, ptr noundef nonnull @.str.72, ptr noundef %35) #31
  ret void
}